target datalayout = "e-m:e-p270:32:32-p271:32:32-p272:64:64-i64:64-i128:128-f80:128-n8:16:32:64-S128"
target triple = "x86_64-pc-linux-gnu"

%struct.Vec_Int_t_ = type { i32, i32, ptr }

; Function Attrs: inlinehint nounwind uwtable
define internal i32 @Vec_IntEntry(ptr noundef %0, i32 noundef %1) #3 {
  %3 = alloca ptr, align 8
  %4 = alloca i32, align 4
  store ptr %0, ptr %3, align 8, !tbaa !55
  store i32 %1, ptr %4, align 4, !tbaa !8
  %5 = load ptr, ptr %3, align 8, !tbaa !55
  %6 = getelementptr inbounds nuw %struct.Vec_Int_t_, ptr %5, i32 0, i32 2
  %7 = load ptr, ptr %6, align 8, !tbaa !59
  %8 = load i32, ptr %4, align 4, !tbaa !8
  %9 = sext i32 %8 to i64
  %10 = getelementptr inbounds i32, ptr %7, i64 %9
  %11 = load i32, ptr %10, align 4, !tbaa !8
  ret i32 %11
}

; Function Attrs: inlinehint nounwind uwtable
define internal i32 @Vec_IntSize(ptr noundef %0) #3 {
  %2 = alloca ptr, align 8
  store ptr %0, ptr %2, align 8, !tbaa !55
  %3 = load ptr, ptr %2, align 8, !tbaa !55
  %4 = getelementptr inbounds nuw %struct.Vec_Int_t_, ptr %3, i32 0, i32 1
  %5 = load i32, ptr %4, align 4, !tbaa !57
  ret i32 %5
}

; Function Attrs: nounwind uwtable
define i32 @Vec_IntLastNonZeroBeforeLimit(ptr noundef %0, i32 noundef %1) #0 {
  %3 = alloca i32, align 4
  %4 = alloca ptr, align 8
  %5 = alloca i32, align 4
  %6 = alloca i32, align 4
  %7 = alloca i32, align 4
  %8 = alloca i32, align 4
  store ptr %0, ptr %4, align 8, !tbaa !55
  store i32 %1, ptr %5, align 4, !tbaa !8
  call void @llvm.lifetime.start.p0(i64 4, ptr %6) #8
  call void @llvm.lifetime.start.p0(i64 4, ptr %7) #8
  %9 = load ptr, ptr %4, align 8, !tbaa !55
  %10 = icmp eq ptr %9, null
  br i1 %10, label %11, label %12

11:                                               ; preds = %2
  store i32 -1, ptr %3, align 4
  store i32 1, ptr %8, align 4
  br label %40

12:                                               ; preds = %2
  %13 = load ptr, ptr %4, align 8, !tbaa !55
  %14 = call i32 @Vec_IntSize(ptr noundef %13)
  %15 = sub nsw i32 %14, 1
  store i32 %15, ptr %7, align 4, !tbaa !8
  br label %16

16:                                               ; preds = %36, %12
  %17 = load i32, ptr %7, align 4, !tbaa !8
  %18 = icmp sge i32 %17, 0
  br i1 %18, label %19, label %23

19:                                               ; preds = %16
  %20 = load ptr, ptr %4, align 8, !tbaa !55
  %21 = load i32, ptr %7, align 4, !tbaa !8
  %22 = call i32 @Vec_IntEntry(ptr noundef %20, i32 noundef %21)
  store i32 %22, ptr %6, align 4, !tbaa !8
  br label %23

23:                                               ; preds = %19, %16
  %24 = phi i1 [ false, %16 ], [ true, %19 ]
  br i1 %24, label %25, label %39

25:                                               ; preds = %23
  %26 = load i32, ptr %7, align 4, !tbaa !8
  %27 = load i32, ptr %5, align 4, !tbaa !8
  %28 = icmp sge i32 %26, %27
  br i1 %28, label %29, label %30

29:                                               ; preds = %25
  br label %36

30:                                               ; preds = %25
  %31 = load i32, ptr %6, align 4, !tbaa !8
  %32 = icmp ne i32 %31, 0
  br i1 %32, label %33, label %35

33:                                               ; preds = %30
  %34 = load i32, ptr %7, align 4, !tbaa !8
  store i32 %34, ptr %3, align 4
  store i32 1, ptr %8, align 4
  br label %40

35:                                               ; preds = %30
  br label %36

36:                                               ; preds = %35, %29
  %37 = load i32, ptr %7, align 4, !tbaa !8
  %38 = add nsw i32 %37, -1
  store i32 %38, ptr %7, align 4, !tbaa !8
  br label %16, !llvm.loop !56

39:                                               ; preds = %23
  store i32 -1, ptr %3, align 4
  store i32 1, ptr %8, align 4
  br label %40

40:                                               ; preds = %39, %33, %11
  call void @llvm.lifetime.end.p0(i64 4, ptr %7) #8
  call void @llvm.lifetime.end.p0(i64 4, ptr %6) #8
  %41 = load i32, ptr %3, align 4
  ret i32 %41
}