; Function Attrs: nofree norecurse nosync nounwind memory(read, inaccessiblemem: none) uwtable
define range(i32 -1, 2147483647) i32 @Vec_IntLastNonZeroBeforeLimit(ptr noundef readonly %0, i32 noundef %1) local_unnamed_addr #4 {
  %3 = icmp eq ptr %0, null
  br i1 %3, label %.critedge, label %4

4:                                                ; preds = %2
  %5 = getelementptr i8, ptr %0, i64 4
  %.val = load i32, ptr %5, align 4, !tbaa !53
  %6 = getelementptr i8, ptr %0, i64 8
  %7 = zext i32 %.val to i64
  br label %8

8:                                                ; preds = %11, %4
  %indvars.iv = phi i64 [ %indvars.iv.next, %11 ], [ %7, %4 ]
  %9 = trunc nuw i64 %indvars.iv to i32
  %10 = icmp sgt i32 %9, 0
  br i1 %10, label %11, label %.critedge

11:                                               ; preds = %8
  %indvars.iv.next = add nsw i64 %indvars.iv, -1
  %.val13 = load ptr, ptr %6, align 8, !tbaa !55
  %12 = and i64 %indvars.iv.next, 4294967295
  %13 = getelementptr inbounds nuw i32, ptr %.val13, i64 %12
  %14 = load i32, ptr %13, align 4, !tbaa !44
  %15 = icmp sge i32 %1, %9
  %16 = icmp ne i32 %14, 0
  %or.cond = select i1 %15, i1 %16, i1 false
  br i1 %or.cond, label %.critedge.loopexit.split.loop.exit, label %8, !llvm.loop !56

.critedge.loopexit.split.loop.exit:               ; preds = %11
  %indvars.le = trunc i64 %indvars.iv.next to i32
  br label %.critedge

.critedge:                                        ; preds = %8, %.critedge.loopexit.split.loop.exit, %2
  %.011 = phi i32 [ -1, %2 ], [ %indvars.le, %.critedge.loopexit.split.loop.exit ], [ -1, %8 ]
  ret i32 %.011
}